; ModuleID = '29/283.c'
source_filename = "29/283.c"
target datalayout = "e-m:e-p270:32:32-p271:32:32-p272:64:64-i64:64-f80:128-n8:16:32:64-S128"
target triple = "x86_64-pc-linux-gnu"

@.str = private unnamed_addr constant [3 x i8] c"%d\00", align 1
@.str.1 = private unnamed_addr constant [7 x i8] c"%.3lf\0A\00", align 1

; Function Attrs: noinline nounwind uwtable
define dso_local i32 @main() #0 {
  %1 = alloca i32, align 4
  %2 = alloca i32, align 4
  %3 = alloca [200 x i32], align 16
  %4 = alloca i32, align 4
  %5 = alloca i32, align 4
  %6 = alloca [200 x double], align 16
  %7 = alloca [200 x double], align 16
  %8 = alloca [200 x double], align 16
  store i32 0, i32* %1, align 4
  %9 = call i32 (i8*, ...) @__isoc99_scanf(i8* getelementptr inbounds ([3 x i8], [3 x i8]* @.str, i64 0, i64 0), i32* %2)
  %10 = getelementptr inbounds [200 x double], [200 x double]* %7, i64 0, i64 0
  store double 2.000000e+00, double* %10, align 16
  %11 = getelementptr inbounds [200 x double], [200 x double]* %8, i64 0, i64 0
  store double 1.000000e+00, double* %11, align 16
  %12 = getelementptr inbounds [200 x double], [200 x double]* %7, i64 0, i64 0
  %13 = load double, double* %12, align 16
  %14 = getelementptr inbounds [200 x double], [200 x double]* %8, i64 0, i64 0
  %15 = load double, double* %14, align 16
  %16 = fdiv double %13, %15
  %17 = getelementptr inbounds [200 x double], [200 x double]* %6, i64 0, i64 0
  store double %16, double* %17, align 16
  store i32 0, i32* %4, align 4
  br label %18

18:                                               ; preds = %89, %0
  %19 = load i32, i32* %4, align 4
  %20 = load i32, i32* %2, align 4
  %21 = icmp slt i32 %19, %20
  br i1 %21, label %22, label %92

22:                                               ; preds = %18
  %23 = load i32, i32* %4, align 4
  %24 = sext i32 %23 to i64
  %25 = getelementptr inbounds [200 x i32], [200 x i32]* %3, i64 0, i64 %24
  %26 = call i32 (i8*, ...) @__isoc99_scanf(i8* getelementptr inbounds ([3 x i8], [3 x i8]* @.str, i64 0, i64 0), i32* %25)
  store i32 1, i32* %5, align 4
  br label %27

27:                                               ; preds = %79, %22
  %28 = load i32, i32* %5, align 4
  %29 = load i32, i32* %4, align 4
  %30 = sext i32 %29 to i64
  %31 = getelementptr inbounds [200 x i32], [200 x i32]* %3, i64 0, i64 %30
  %32 = load i32, i32* %31, align 4
  %33 = icmp slt i32 %28, %32
  br i1 %33, label %34, label %82

34:                                               ; preds = %27
  %35 = load i32, i32* %5, align 4
  %36 = sub nsw i32 %35, 1
  %37 = sext i32 %36 to i64
  %38 = getelementptr inbounds [200 x double], [200 x double]* %7, i64 0, i64 %37
  %39 = load double, double* %38, align 8
  %40 = load i32, i32* %5, align 4
  %41 = sub nsw i32 %40, 1
  %42 = sext i32 %41 to i64
  %43 = getelementptr inbounds [200 x double], [200 x double]* %8, i64 0, i64 %42
  %44 = load double, double* %43, align 8
  %45 = fadd double %39, %44
  %46 = load i32, i32* %5, align 4
  %47 = sext i32 %46 to i64
  %48 = getelementptr inbounds [200 x double], [200 x double]* %7, i64 0, i64 %47
  store double %45, double* %48, align 8
  %49 = load i32, i32* %5, align 4
  %50 = sub nsw i32 %49, 1
  %51 = sext i32 %50 to i64
  %52 = getelementptr inbounds [200 x double], [200 x double]* %7, i64 0, i64 %51
  %53 = load double, double* %52, align 8
  %54 = load i32, i32* %5, align 4
  %55 = sext i32 %54 to i64
  %56 = getelementptr inbounds [200 x double], [200 x double]* %8, i64 0, i64 %55
  store double %53, double* %56, align 8
  %57 = load i32, i32* %5, align 4
  %58 = sext i32 %57 to i64
  %59 = getelementptr inbounds [200 x double], [200 x double]* %7, i64 0, i64 %58
  %60 = load double, double* %59, align 8
  %61 = load i32, i32* %5, align 4
  %62 = sext i32 %61 to i64
  %63 = getelementptr inbounds [200 x double], [200 x double]* %8, i64 0, i64 %62
  %64 = load double, double* %63, align 8
  %65 = fdiv double %60, %64
  %66 = load i32, i32* %5, align 4
  %67 = sext i32 %66 to i64
  %68 = getelementptr inbounds [200 x double], [200 x double]* %6, i64 0, i64 %67
  store double %65, double* %68, align 8
  %69 = load i32, i32* %5, align 4
  %70 = sub nsw i32 %69, 1
  %71 = sext i32 %70 to i64
  %72 = getelementptr inbounds [200 x double], [200 x double]* %6, i64 0, i64 %71
  %73 = load double, double* %72, align 8
  %74 = load i32, i32* %5, align 4
  %75 = sext i32 %74 to i64
  %76 = getelementptr inbounds [200 x double], [200 x double]* %6, i64 0, i64 %75
  %77 = load double, double* %76, align 8
  %78 = fadd double %77, %73
  store double %78, double* %76, align 8
  br label %79

79:                                               ; preds = %34
  %80 = load i32, i32* %5, align 4
  %81 = add nsw i32 %80, 1
  store i32 %81, i32* %5, align 4
  br label %27

82:                                               ; preds = %27
  %83 = load i32, i32* %5, align 4
  %84 = sub nsw i32 %83, 1
  %85 = sext i32 %84 to i64
  %86 = getelementptr inbounds [200 x double], [200 x double]* %6, i64 0, i64 %85
  %87 = load double, double* %86, align 8
  %88 = call i32 (i8*, ...) @printf(i8* getelementptr inbounds ([7 x i8], [7 x i8]* @.str.1, i64 0, i64 0), double %87)
  br label %89

89:                                               ; preds = %82
  %90 = load i32, i32* %4, align 4
  %91 = add nsw i32 %90, 1
  store i32 %91, i32* %4, align 4
  br label %18

92:                                               ; preds = %18
  ret i32 0
}

declare dso_local i32 @__isoc99_scanf(i8*, ...) #1

declare dso_local i32 @printf(i8*, ...) #1


!llvm.module.flags = !{!0}
!llvm.ident = !{!1}

!0 = !{i32 1, !"wchar_size", i32 4}
!1 = !{!"clang version 10.0.0-4ubuntu1 "}
